target datalayout = "e-m:e-p270:32:32-p271:32:32-p272:64:64-i64:64-i128:128-f80:128-n8:16:32:64-S128"
target triple = "x86_64-pc-linux-gnu"

%class.QString = type { %struct.QArrayDataPointer }
%struct.QArrayDataPointer = type { ptr, ptr, i64 }
%class.RtpStreamDialog = type { %class.WiresharkDialog.base, ptr, %struct._rtpstream_tapinfo, ptr, ptr, ptr, ptr, ptr, ptr, %class.QMenu, i8, %class.QList.1 }
%class.WiresharkDialog.base = type <{ %class.GeometryStateDialog, ptr, i8, [7 x i8], %class.QString, %class.QList, i32, i8 }>
%class.GeometryStateDialog = type { %class.QDialog, %class.QString }
%class.QDialog = type { %class.QWidget }
%class.QWidget = type { %class.QObject, %class.QPaintDevice.base, ptr }
%class.QObject = type { ptr, %class.QScopedPointer }
%class.QScopedPointer = type { ptr }
%class.QPaintDevice.base = type <{ ptr, i16 }>
%class.QList = type { %struct.QArrayDataPointer.0 }
%struct.QArrayDataPointer.0 = type { ptr, ptr, i64 }
%struct._rtpstream_tapinfo = type { ptr, ptr, ptr, ptr, i32, ptr, ptr, i32, i32, ptr, ptr, ptr, i32, i32 }
%class.QMenu = type { %class.QWidget }
%class.QList.1 = type { %struct.QArrayDataPointer.4 }
%struct.QArrayDataPointer.4 = type { ptr, ptr, i64 }
%class.Ui_RtpStreamDialog = type { ptr, ptr, ptr, ptr, ptr, ptr, ptr, ptr, ptr, ptr, ptr, ptr, ptr, ptr, ptr, ptr, ptr, ptr, ptr, ptr, ptr, ptr, ptr, ptr, ptr }
%class.QList.17 = type { %struct.QArrayDataPointer.20 }
%struct.QArrayDataPointer.20 = type { ptr, ptr, i64 }
%class.RtpStreamTreeWidgetItem = type <{ %class.QTreeWidgetItem.base, [4 x i8], ptr, i32, [4 x i8] }>
%class.QTreeWidgetItem.base = type <{ ptr, i32, [4 x i8], %class.QList.13, ptr, ptr, ptr, %class.QList.17, %class.QFlags.21 }>
%class.QList.13 = type { %struct.QArrayDataPointer.16 }
%struct.QArrayDataPointer.16 = type { ptr, ptr, i64 }
%class.QFlags.21 = type { i32 }

; Function Attrs: mustprogress nounwind uwtable
define linkonce_odr noundef ptr @_ZNK23RtpStreamTreeWidgetItem10streamInfoEv(ptr noundef nonnull align 8 dereferenceable(108) %0) #5 comdat align 2 {
  %2 = alloca ptr, align 8
  store ptr %0, ptr %2, align 8
  %3 = load ptr, ptr %2, align 8
  %4 = getelementptr inbounds %class.RtpStreamTreeWidgetItem, ptr %3, i32 0, i32 2
  %5 = load ptr, ptr %4, align 8
  ret ptr %5
}

; Function Attrs: mustprogress uwtable
define void @_ZN15RtpStreamDialog34on_actionFindReversePair_triggeredEv(ptr noundef nonnull align 8 dereferenceable(360) %0) #0 align 2 {
  %2 = alloca ptr, align 8
  %3 = alloca i32, align 4
  %4 = alloca ptr, align 8
  %5 = alloca ptr, align 8
  %6 = alloca i32, align 4
  %7 = alloca ptr, align 8
  %8 = alloca ptr, align 8
  store ptr %0, ptr %2, align 8
  %9 = load ptr, ptr %2, align 8
  %10 = getelementptr inbounds %class.RtpStreamDialog, ptr %9, i32 0, i32 1
  %11 = load ptr, ptr %10, align 8
  %12 = getelementptr inbounds %class.Ui_RtpStreamDialog, ptr %11, i32 0, i32 18
  %13 = load ptr, ptr %12, align 8
  %14 = call noundef zeroext i1 @_ZN7QObject12blockSignalsEb(ptr noundef nonnull align 8 dereferenceable(16) %13, i1 noundef zeroext true) #18
  %15 = getelementptr inbounds %class.RtpStreamDialog, ptr %9, i32 0, i32 1
  %16 = load ptr, ptr %15, align 8
  %17 = getelementptr inbounds %class.Ui_RtpStreamDialog, ptr %16, i32 0, i32 18
  %18 = load ptr, ptr %17, align 8
  call void @_ZN17QAbstractItemView14clearSelectionEv(ptr noundef nonnull align 8 dereferenceable(40) %18)
  store i32 0, ptr %3, align 4
  br label %19

19:                                               ; preds = %74, %1
  %20 = load i32, ptr %3, align 4
  %21 = getelementptr inbounds %class.RtpStreamDialog, ptr %9, i32 0, i32 1
  %22 = load ptr, ptr %21, align 8
  %23 = getelementptr inbounds %class.Ui_RtpStreamDialog, ptr %22, i32 0, i32 18
  %24 = load ptr, ptr %23, align 8
  %25 = call noundef i32 @_ZNK11QTreeWidget17topLevelItemCountEv(ptr noundef nonnull align 8 dereferenceable(40) %24)
  %26 = icmp slt i32 %20, %25
  br i1 %26, label %27, label %77

27:                                               ; preds = %19
  %28 = getelementptr inbounds %class.RtpStreamDialog, ptr %9, i32 0, i32 1
  %29 = load ptr, ptr %28, align 8
  %30 = getelementptr inbounds %class.Ui_RtpStreamDialog, ptr %29, i32 0, i32 18
  %31 = load ptr, ptr %30, align 8
  %32 = load i32, ptr %3, align 4
  %33 = call noundef ptr @_ZNK11QTreeWidget12topLevelItemEi(ptr noundef nonnull align 8 dereferenceable(40) %31, i32 noundef %32)
  store ptr %33, ptr %4, align 8
  %34 = load ptr, ptr %4, align 8
  %35 = call noundef ptr @_ZNK23RtpStreamTreeWidgetItem10streamInfoEv(ptr noundef nonnull align 8 dereferenceable(108) %34)
  store ptr %35, ptr %5, align 8
  %36 = load ptr, ptr %5, align 8
  %37 = icmp ne ptr %36, null
  br i1 %37, label %38, label %73

38:                                               ; preds = %27
  %39 = load i32, ptr %3, align 4
  %40 = add i32 %39, 1
  store i32 %40, ptr %6, align 4
  br label %41

41:                                               ; preds = %69, %38
  %42 = load i32, ptr %6, align 4
  %43 = getelementptr inbounds %class.RtpStreamDialog, ptr %9, i32 0, i32 1
  %44 = load ptr, ptr %43, align 8
  %45 = getelementptr inbounds %class.Ui_RtpStreamDialog, ptr %44, i32 0, i32 18
  %46 = load ptr, ptr %45, align 8
  %47 = call noundef i32 @_ZNK11QTreeWidget17topLevelItemCountEv(ptr noundef nonnull align 8 dereferenceable(40) %46)
  %48 = icmp slt i32 %42, %47
  br i1 %48, label %49, label %72

49:                                               ; preds = %41
  %50 = getelementptr inbounds %class.RtpStreamDialog, ptr %9, i32 0, i32 1
  %51 = load ptr, ptr %50, align 8
  %52 = getelementptr inbounds %class.Ui_RtpStreamDialog, ptr %51, i32 0, i32 18
  %53 = load ptr, ptr %52, align 8
  %54 = load i32, ptr %6, align 4
  %55 = call noundef ptr @_ZNK11QTreeWidget12topLevelItemEi(ptr noundef nonnull align 8 dereferenceable(40) %53, i32 noundef %54)
  store ptr %55, ptr %7, align 8
  %56 = load ptr, ptr %7, align 8
  %57 = call noundef ptr @_ZNK23RtpStreamTreeWidgetItem10streamInfoEv(ptr noundef nonnull align 8 dereferenceable(108) %56)
  store ptr %57, ptr %8, align 8
  %58 = load ptr, ptr %8, align 8
  %59 = icmp ne ptr %58, null
  br i1 %59, label %60, label %68

60:                                               ; preds = %49
  %61 = load ptr, ptr %5, align 8
  %62 = load ptr, ptr %8, align 8
  %63 = call i32 @rtpstream_info_is_reverse(ptr noundef %61, ptr noundef %62)
  %64 = icmp ne i32 %63, 0
  br i1 %64, label %65, label %68

65:                                               ; preds = %60
  %66 = load ptr, ptr %4, align 8
  call void @_ZN15QTreeWidgetItem11setSelectedEb(ptr noundef nonnull align 8 dereferenceable(92) %66, i1 noundef zeroext true)
  %67 = load ptr, ptr %7, align 8
  call void @_ZN15QTreeWidgetItem11setSelectedEb(ptr noundef nonnull align 8 dereferenceable(92) %67, i1 noundef zeroext true)
  br label %72

68:                                               ; preds = %60, %49
  br label %69

69:                                               ; preds = %68
  %70 = load i32, ptr %6, align 4
  %71 = add i32 %70, 1
  store i32 %71, ptr %6, align 4
  br label %41, !llvm.loop !16

72:                                               ; preds = %65, %41
  br label %73

73:                                               ; preds = %72, %27
  br label %74

74:                                               ; preds = %73
  %75 = load i32, ptr %3, align 4
  %76 = add i32 %75, 1
  store i32 %76, ptr %3, align 4
  br label %19, !llvm.loop !17

77:                                               ; preds = %19
  %78 = getelementptr inbounds %class.RtpStreamDialog, ptr %9, i32 0, i32 1
  %79 = load ptr, ptr %78, align 8
  %80 = getelementptr inbounds %class.Ui_RtpStreamDialog, ptr %79, i32 0, i32 18
  %81 = load ptr, ptr %80, align 8
  %82 = call noundef zeroext i1 @_ZN7QObject12blockSignalsEb(ptr noundef nonnull align 8 dereferenceable(16) %81, i1 noundef zeroext false) #18
  %83 = load ptr, ptr %9, align 8
  %84 = getelementptr inbounds ptr, ptr %83, i64 58
  %85 = load ptr, ptr %84, align 8
  call void %85(ptr noundef nonnull align 8 dereferenceable(360) %9)
  ret void
}