; Function Attrs: mustprogress uwtable
define void @_ZN15RtpStreamDialog34on_actionFindReversePair_triggeredEv(ptr noundef nonnull align 8 dereferenceable(360) %0) local_unnamed_addr #0 align 2 {
  %2 = getelementptr inbounds i8, ptr %0, i64 136
  %3 = load ptr, ptr %2, align 8
  %4 = getelementptr inbounds i8, ptr %3, i64 144
  %5 = load ptr, ptr %4, align 8
  %6 = tail call noundef zeroext i1 @_ZN7QObject12blockSignalsEb(ptr noundef nonnull align 8 dereferenceable(16) %5, i1 noundef zeroext true) #18
  %7 = load ptr, ptr %2, align 8
  %8 = getelementptr inbounds i8, ptr %7, i64 144
  %9 = load ptr, ptr %8, align 8
  tail call void @_ZN17QAbstractItemView14clearSelectionEv(ptr noundef nonnull align 8 dereferenceable(40) %9)
  %10 = load ptr, ptr %2, align 8
  %11 = getelementptr inbounds i8, ptr %10, i64 144
  %12 = load ptr, ptr %11, align 8
  %13 = tail call noundef i32 @_ZNK11QTreeWidget17topLevelItemCountEv(ptr noundef nonnull align 8 dereferenceable(40) %12)
  %14 = icmp sgt i32 %13, 0
  br i1 %14, label %.lr.ph23, label %._crit_edge

.lr.ph23:                                         ; preds = %1, %.loopexit
  %.022 = phi i32 [ %.pre, %.loopexit ], [ 0, %1 ]
  %15 = load ptr, ptr %2, align 8
  %16 = getelementptr inbounds i8, ptr %15, i64 144
  %17 = load ptr, ptr %16, align 8
  %18 = tail call noundef ptr @_ZNK11QTreeWidget12topLevelItemEi(ptr noundef nonnull align 8 dereferenceable(40) %17, i32 noundef %.022)
  %19 = getelementptr inbounds i8, ptr %18, i64 96
  %20 = load ptr, ptr %19, align 8
  %.not = icmp eq ptr %20, null
  %.pre = add nuw nsw i32 %.022, 1
  br i1 %.not, label %.loopexit, label %.preheader

.preheader:                                       ; preds = %.lr.ph23
  %21 = load ptr, ptr %2, align 8
  %22 = getelementptr inbounds i8, ptr %21, i64 144
  %23 = load ptr, ptr %22, align 8
  %24 = tail call noundef i32 @_ZNK11QTreeWidget17topLevelItemCountEv(ptr noundef nonnull align 8 dereferenceable(40) %23)
  %25 = icmp slt i32 %.pre, %24
  br i1 %25, label %.lr.ph, label %.loopexit

.lr.ph:                                           ; preds = %.preheader, %35
  %.01521 = phi i32 [ %.015, %35 ], [ %.pre, %.preheader ]
  %26 = load ptr, ptr %2, align 8
  %27 = getelementptr inbounds i8, ptr %26, i64 144
  %28 = load ptr, ptr %27, align 8
  %29 = tail call noundef ptr @_ZNK11QTreeWidget12topLevelItemEi(ptr noundef nonnull align 8 dereferenceable(40) %28, i32 noundef %.01521)
  %30 = getelementptr inbounds i8, ptr %29, i64 96
  %31 = load ptr, ptr %30, align 8
  %.not18 = icmp eq ptr %31, null
  br i1 %.not18, label %35, label %32

32:                                               ; preds = %.lr.ph
  %33 = tail call i32 @rtpstream_info_is_reverse(ptr noundef nonnull %20, ptr noundef nonnull %31)
  %.not19 = icmp eq i32 %33, 0
  br i1 %.not19, label %35, label %34

34:                                               ; preds = %32
  tail call void @_ZN15QTreeWidgetItem11setSelectedEb(ptr noundef nonnull align 8 dereferenceable(92) %18, i1 noundef zeroext true)
  tail call void @_ZN15QTreeWidgetItem11setSelectedEb(ptr noundef nonnull align 8 dereferenceable(92) %29, i1 noundef zeroext true)
  br label %.loopexit

35:                                               ; preds = %.lr.ph, %32
  %.015 = add nuw nsw i32 %.01521, 1
  %36 = load ptr, ptr %2, align 8
  %37 = getelementptr inbounds i8, ptr %36, i64 144
  %38 = load ptr, ptr %37, align 8
  %39 = tail call noundef i32 @_ZNK11QTreeWidget17topLevelItemCountEv(ptr noundef nonnull align 8 dereferenceable(40) %38)
  %40 = icmp slt i32 %.015, %39
  br i1 %40, label %.lr.ph, label %.loopexit, !llvm.loop !57

.loopexit:                                        ; preds = %35, %.lr.ph23, %.preheader, %34
  %41 = load ptr, ptr %2, align 8
  %42 = getelementptr inbounds i8, ptr %41, i64 144
  %43 = load ptr, ptr %42, align 8
  %44 = tail call noundef i32 @_ZNK11QTreeWidget17topLevelItemCountEv(ptr noundef nonnull align 8 dereferenceable(40) %43)
  %45 = icmp slt i32 %.pre, %44
  br i1 %45, label %.lr.ph23, label %._crit_edge, !llvm.loop !58

._crit_edge:                                      ; preds = %.loopexit, %1
  %46 = load ptr, ptr %2, align 8
  %47 = getelementptr inbounds i8, ptr %46, i64 144
  %48 = load ptr, ptr %47, align 8
  %49 = tail call noundef zeroext i1 @_ZN7QObject12blockSignalsEb(ptr noundef nonnull align 8 dereferenceable(16) %48, i1 noundef zeroext false) #18
  %50 = load ptr, ptr %0, align 8
  %51 = getelementptr inbounds i8, ptr %50, i64 464
  %52 = load ptr, ptr %51, align 8
  tail call void %52(ptr noundef nonnull align 8 dereferenceable(360) %0)
  ret void
}